; Function Attrs: nounwind uwtable
define internal i32 @vaapi_mpeg4_end_frame(ptr noundef %0) #0 {
  %2 = getelementptr inbounds nuw i8, ptr %0, i64 32
  %3 = load ptr, ptr %2, align 8, !tbaa !4
  %4 = getelementptr inbounds nuw i8, ptr %3, i64 1208
  %5 = load ptr, ptr %4, align 8, !tbaa !27
  %6 = getelementptr inbounds nuw i8, ptr %5, i64 96
  %7 = load ptr, ptr %6, align 8, !tbaa !50
  %8 = tail call i32 @ff_vaapi_decode_issue(ptr noundef %0, ptr noundef %7) #5
  %9 = icmp slt i32 %8, 0
  br i1 %9, label %15, label %10

10:                                               ; preds = %1
  %11 = getelementptr inbounds nuw i8, ptr %3, i64 472
  %12 = load ptr, ptr %11, align 8, !tbaa !110
  %13 = getelementptr inbounds nuw i8, ptr %12, i64 116
  %14 = load i32, ptr %13, align 4, !tbaa !111
  tail call void @ff_mpeg_draw_horiz_band(ptr noundef nonnull %3, i32 noundef 0, i32 noundef %14) #5
  br label %15

15:                                               ; preds = %1, %10
  ret i32 %8
}